target datalayout = "e-m:e-p270:32:32-p271:32:32-p272:64:64-i64:64-f80:128-n8:16:32:64-S128"
target triple = "x86_64-pc-linux-gnu"

%struct.student = type { [20 x i8], i32, i32, i8, i8, i32, i32 }

@.str = private unnamed_addr constant [3 x i8] c"%d\00", align 1
@.str.1 = private unnamed_addr constant [18 x i8] c"%s %d %d %c %c %d\00", align 1
@person = common dso_local global [100 x %struct.student] zeroinitializer, align 16
@.str.2 = private unnamed_addr constant [4 x i8] c"%s\0A\00", align 1
@.str.3 = private unnamed_addr constant [4 x i8] c"%d\0A\00", align 1

; Function Attrs: noinline nounwind uwtable
define dso_local i32 @main() #0 {
  %1 = alloca i32, align 4
  %2 = alloca i32, align 4
  %3 = alloca i32, align 4
  %4 = alloca i32, align 4
  %5 = alloca i32, align 4
  %6 = alloca i32, align 4
  %7 = alloca %struct.student, align 4
  store i32 0, i32* %1, align 4
  store i32 0, i32* %5, align 4
  %8 = call i32 (i8*, ...) @__isoc99_scanf(i8* getelementptr inbounds ([3 x i8], [3 x i8]* @.str, i64 0, i64 0), i32* %2)
  store i32 0, i32* %3, align 4
  br label %9

9:                                                ; preds = %172, %0
  %10 = load i32, i32* %3, align 4
  %11 = load i32, i32* %2, align 4
  %12 = sub nsw i32 %11, 1
  %13 = icmp sle i32 %10, %12
  br i1 %13, label %14, label %175

14:                                               ; preds = %9
  %15 = load i32, i32* %3, align 4
  %16 = sext i32 %15 to i64
  %17 = getelementptr inbounds [100 x %struct.student], [100 x %struct.student]* @person, i64 0, i64 %16
  %18 = getelementptr inbounds %struct.student, %struct.student* %17, i32 0, i32 0
  %19 = getelementptr inbounds [20 x i8], [20 x i8]* %18, i64 0, i64 0
  %20 = load i32, i32* %3, align 4
  %21 = sext i32 %20 to i64
  %22 = getelementptr inbounds [100 x %struct.student], [100 x %struct.student]* @person, i64 0, i64 %21
  %23 = getelementptr inbounds %struct.student, %struct.student* %22, i32 0, i32 1
  %24 = load i32, i32* %3, align 4
  %25 = sext i32 %24 to i64
  %26 = getelementptr inbounds [100 x %struct.student], [100 x %struct.student]* @person, i64 0, i64 %25
  %27 = getelementptr inbounds %struct.student, %struct.student* %26, i32 0, i32 2
  %28 = load i32, i32* %3, align 4
  %29 = sext i32 %28 to i64
  %30 = getelementptr inbounds [100 x %struct.student], [100 x %struct.student]* @person, i64 0, i64 %29
  %31 = getelementptr inbounds %struct.student, %struct.student* %30, i32 0, i32 3
  %32 = load i32, i32* %3, align 4
  %33 = sext i32 %32 to i64
  %34 = getelementptr inbounds [100 x %struct.student], [100 x %struct.student]* @person, i64 0, i64 %33
  %35 = getelementptr inbounds %struct.student, %struct.student* %34, i32 0, i32 4
  %36 = load i32, i32* %3, align 4
  %37 = sext i32 %36 to i64
  %38 = getelementptr inbounds [100 x %struct.student], [100 x %struct.student]* @person, i64 0, i64 %37
  %39 = getelementptr inbounds %struct.student, %struct.student* %38, i32 0, i32 5
  %40 = call i32 (i8*, ...) @__isoc99_scanf(i8* getelementptr inbounds ([18 x i8], [18 x i8]* @.str.1, i64 0, i64 0), i8* %19, i32* %23, i32* %27, i8* %31, i8* %35, i32* %39)
  %41 = load i32, i32* %3, align 4
  %42 = sext i32 %41 to i64
  %43 = getelementptr inbounds [100 x %struct.student], [100 x %struct.student]* @person, i64 0, i64 %42
  %44 = getelementptr inbounds %struct.student, %struct.student* %43, i32 0, i32 6
  store i32 0, i32* %44, align 4
  %45 = load i32, i32* %3, align 4
  %46 = sext i32 %45 to i64
  %47 = getelementptr inbounds [100 x %struct.student], [100 x %struct.student]* @person, i64 0, i64 %46
  %48 = getelementptr inbounds %struct.student, %struct.student* %47, i32 0, i32 5
  %49 = load i32, i32* %48, align 8
  %50 = icmp sgt i32 %49, 0
  br i1 %50, label %51, label %69

51:                                               ; preds = %14
  %52 = load i32, i32* %3, align 4
  %53 = sext i32 %52 to i64
  %54 = getelementptr inbounds [100 x %struct.student], [100 x %struct.student]* @person, i64 0, i64 %53
  %55 = getelementptr inbounds %struct.student, %struct.student* %54, i32 0, i32 1
  %56 = load i32, i32* %55, align 4
  %57 = icmp sgt i32 %56, 80
  br i1 %57, label %58, label %69

58:                                               ; preds = %51
  %59 = load i32, i32* %3, align 4
  %60 = sext i32 %59 to i64
  %61 = getelementptr inbounds [100 x %struct.student], [100 x %struct.student]* @person, i64 0, i64 %60
  %62 = getelementptr inbounds %struct.student, %struct.student* %61, i32 0, i32 6
  %63 = load i32, i32* %62, align 4
  %64 = add nsw i32 %63, 8000
  %65 = load i32, i32* %3, align 4
  %66 = sext i32 %65 to i64
  %67 = getelementptr inbounds [100 x %struct.student], [100 x %struct.student]* @person, i64 0, i64 %66
  %68 = getelementptr inbounds %struct.student, %struct.student* %67, i32 0, i32 6
  store i32 %64, i32* %68, align 4
  br label %69

69:                                               ; preds = %58, %51, %14
  %70 = load i32, i32* %3, align 4
  %71 = sext i32 %70 to i64
  %72 = getelementptr inbounds [100 x %struct.student], [100 x %struct.student]* @person, i64 0, i64 %71
  %73 = getelementptr inbounds %struct.student, %struct.student* %72, i32 0, i32 1
  %74 = load i32, i32* %73, align 4
  %75 = icmp sgt i32 %74, 85
  br i1 %75, label %76, label %94

76:                                               ; preds = %69
  %77 = load i32, i32* %3, align 4
  %78 = sext i32 %77 to i64
  %79 = getelementptr inbounds [100 x %struct.student], [100 x %struct.student]* @person, i64 0, i64 %78
  %80 = getelementptr inbounds %struct.student, %struct.student* %79, i32 0, i32 2
  %81 = load i32, i32* %80, align 8
  %82 = icmp sgt i32 %81, 80
  br i1 %82, label %83, label %94

83:                                               ; preds = %76
  %84 = load i32, i32* %3, align 4
  %85 = sext i32 %84 to i64
  %86 = getelementptr inbounds [100 x %struct.student], [100 x %struct.student]* @person, i64 0, i64 %85
  %87 = getelementptr inbounds %struct.student, %struct.student* %86, i32 0, i32 6
  %88 = load i32, i32* %87, align 4
  %89 = add nsw i32 %88, 4000
  %90 = load i32, i32* %3, align 4
  %91 = sext i32 %90 to i64
  %92 = getelementptr inbounds [100 x %struct.student], [100 x %struct.student]* @person, i64 0, i64 %91
  %93 = getelementptr inbounds %struct.student, %struct.student* %92, i32 0, i32 6
  store i32 %89, i32* %93, align 4
  br label %94

94:                                               ; preds = %83, %76, %69
  %95 = load i32, i32* %3, align 4
  %96 = sext i32 %95 to i64
  %97 = getelementptr inbounds [100 x %struct.student], [100 x %struct.student]* @person, i64 0, i64 %96
  %98 = getelementptr inbounds %struct.student, %struct.student* %97, i32 0, i32 1
  %99 = load i32, i32* %98, align 4
  %100 = icmp sgt i32 %99, 90
  br i1 %100, label %101, label %112

101:                                              ; preds = %94
  %102 = load i32, i32* %3, align 4
  %103 = sext i32 %102 to i64
  %104 = getelementptr inbounds [100 x %struct.student], [100 x %struct.student]* @person, i64 0, i64 %103
  %105 = getelementptr inbounds %struct.student, %struct.student* %104, i32 0, i32 6
  %106 = load i32, i32* %105, align 4
  %107 = add nsw i32 %106, 2000
  %108 = load i32, i32* %3, align 4
  %109 = sext i32 %108 to i64
  %110 = getelementptr inbounds [100 x %struct.student], [100 x %struct.student]* @person, i64 0, i64 %109
  %111 = getelementptr inbounds %struct.student, %struct.student* %110, i32 0, i32 6
  store i32 %107, i32* %111, align 4
  br label %112

112:                                              ; preds = %101, %94
  %113 = load i32, i32* %3, align 4
  %114 = sext i32 %113 to i64
  %115 = getelementptr inbounds [100 x %struct.student], [100 x %struct.student]* @person, i64 0, i64 %114
  %116 = getelementptr inbounds %struct.student, %struct.student* %115, i32 0, i32 1
  %117 = load i32, i32* %116, align 4
  %118 = icmp sgt i32 %117, 85
  br i1 %118, label %119, label %138

119:                                              ; preds = %112
  %120 = load i32, i32* %3, align 4
  %121 = sext i32 %120 to i64
  %122 = getelementptr inbounds [100 x %struct.student], [100 x %struct.student]* @person, i64 0, i64 %121
  %123 = getelementptr inbounds %struct.student, %struct.student* %122, i32 0, i32 4
  %124 = load i8, i8* %123, align 1
  %125 = sext i8 %124 to i32
  %126 = icmp eq i32 %125, 89
  br i1 %126, label %127, label %138

127:                                              ; preds = %119
  %128 = load i32, i32* %3, align 4
  %129 = sext i32 %128 to i64
  %130 = getelementptr inbounds [100 x %struct.student], [100 x %struct.student]* @person, i64 0, i64 %129
  %131 = getelementptr inbounds %struct.student, %struct.student* %130, i32 0, i32 6
  %132 = load i32, i32* %131, align 4
  %133 = add nsw i32 %132, 1000
  %134 = load i32, i32* %3, align 4
  %135 = sext i32 %134 to i64
  %136 = getelementptr inbounds [100 x %struct.student], [100 x %struct.student]* @person, i64 0, i64 %135
  %137 = getelementptr inbounds %struct.student, %struct.student* %136, i32 0, i32 6
  store i32 %133, i32* %137, align 4
  br label %138

138:                                              ; preds = %127, %119, %112
  %139 = load i32, i32* %3, align 4
  %140 = sext i32 %139 to i64
  %141 = getelementptr inbounds [100 x %struct.student], [100 x %struct.student]* @person, i64 0, i64 %140
  %142 = getelementptr inbounds %struct.student, %struct.student* %141, i32 0, i32 2
  %143 = load i32, i32* %142, align 8
  %144 = icmp sgt i32 %143, 80
  br i1 %144, label %145, label %164

145:                                              ; preds = %138
  %146 = load i32, i32* %3, align 4
  %147 = sext i32 %146 to i64
  %148 = getelementptr inbounds [100 x %struct.student], [100 x %struct.student]* @person, i64 0, i64 %147
  %149 = getelementptr inbounds %struct.student, %struct.student* %148, i32 0, i32 3
  %150 = load i8, i8* %149, align 4
  %151 = sext i8 %150 to i32
  %152 = icmp eq i32 %151, 89
  br i1 %152, label %153, label %164

153:                                              ; preds = %145
  %154 = load i32, i32* %3, align 4
  %155 = sext i32 %154 to i64
  %156 = getelementptr inbounds [100 x %struct.student], [100 x %struct.student]* @person, i64 0, i64 %155
  %157 = getelementptr inbounds %struct.student, %struct.student* %156, i32 0, i32 6
  %158 = load i32, i32* %157, align 4
  %159 = add nsw i32 %158, 850
  %160 = load i32, i32* %3, align 4
  %161 = sext i32 %160 to i64
  %162 = getelementptr inbounds [100 x %struct.student], [100 x %struct.student]* @person, i64 0, i64 %161
  %163 = getelementptr inbounds %struct.student, %struct.student* %162, i32 0, i32 6
  store i32 %159, i32* %163, align 4
  br label %164

164:                                              ; preds = %153, %145, %138
  %165 = load i32, i32* %5, align 4
  %166 = load i32, i32* %3, align 4
  %167 = sext i32 %166 to i64
  %168 = getelementptr inbounds [100 x %struct.student], [100 x %struct.student]* @person, i64 0, i64 %167
  %169 = getelementptr inbounds %struct.student, %struct.student* %168, i32 0, i32 6
  %170 = load i32, i32* %169, align 4
  %171 = add nsw i32 %165, %170
  store i32 %171, i32* %5, align 4
  br label %172

172:                                              ; preds = %164
  %173 = load i32, i32* %3, align 4
  %174 = add nsw i32 %173, 1
  store i32 %174, i32* %3, align 4
  br label %9

175:                                              ; preds = %9
  store i32 0, i32* %3, align 4
  br label %176

176:                                              ; preds = %227, %175
  %177 = load i32, i32* %3, align 4
  %178 = load i32, i32* %2, align 4
  %179 = sub nsw i32 %178, 2
  %180 = icmp sle i32 %177, %179
  br i1 %180, label %181, label %230

181:                                              ; preds = %176
  %182 = load i32, i32* %3, align 4
  store i32 %182, i32* %6, align 4
  %183 = load i32, i32* %3, align 4
  %184 = add nsw i32 %183, 1
  store i32 %184, i32* %4, align 4
  br label %185

185:                                              ; preds = %205, %181
  %186 = load i32, i32* %4, align 4
  %187 = load i32, i32* %2, align 4
  %188 = sub nsw i32 %187, 1
  %189 = icmp sle i32 %186, %188
  br i1 %189, label %190, label %208

190:                                              ; preds = %185
  %191 = load i32, i32* %4, align 4
  %192 = sext i32 %191 to i64
  %193 = getelementptr inbounds [100 x %struct.student], [100 x %struct.student]* @person, i64 0, i64 %192
  %194 = getelementptr inbounds %struct.student, %struct.student* %193, i32 0, i32 6
  %195 = load i32, i32* %194, align 4
  %196 = load i32, i32* %6, align 4
  %197 = sext i32 %196 to i64
  %198 = getelementptr inbounds [100 x %struct.student], [100 x %struct.student]* @person, i64 0, i64 %197
  %199 = getelementptr inbounds %struct.student, %struct.student* %198, i32 0, i32 6
  %200 = load i32, i32* %199, align 4
  %201 = icmp sgt i32 %195, %200
  br i1 %201, label %202, label %204

202:                                              ; preds = %190
  %203 = load i32, i32* %4, align 4
  store i32 %203, i32* %6, align 4
  br label %204

204:                                              ; preds = %202, %190
  br label %205

205:                                              ; preds = %204
  %206 = load i32, i32* %4, align 4
  %207 = add nsw i32 %206, 1
  store i32 %207, i32* %4, align 4
  br label %185

208:                                              ; preds = %185
  %209 = load i32, i32* %6, align 4
  %210 = sext i32 %209 to i64
  %211 = getelementptr inbounds [100 x %struct.student], [100 x %struct.student]* @person, i64 0, i64 %210
  %212 = bitcast %struct.student* %7 to i8*
  %213 = bitcast %struct.student* %211 to i8*
  call void @llvm.memcpy.p0i8.p0i8.i64(i8* align 4 %212, i8* align 8 %213, i64 40, i1 false)
  %214 = load i32, i32* %6, align 4
  %215 = sext i32 %214 to i64
  %216 = getelementptr inbounds [100 x %struct.student], [100 x %struct.student]* @person, i64 0, i64 %215
  %217 = load i32, i32* %3, align 4
  %218 = sext i32 %217 to i64
  %219 = getelementptr inbounds [100 x %struct.student], [100 x %struct.student]* @person, i64 0, i64 %218
  %220 = bitcast %struct.student* %216 to i8*
  %221 = bitcast %struct.student* %219 to i8*
  call void @llvm.memcpy.p0i8.p0i8.i64(i8* align 8 %220, i8* align 8 %221, i64 40, i1 false)
  %222 = load i32, i32* %3, align 4
  %223 = sext i32 %222 to i64
  %224 = getelementptr inbounds [100 x %struct.student], [100 x %struct.student]* @person, i64 0, i64 %223
  %225 = bitcast %struct.student* %224 to i8*
  %226 = bitcast %struct.student* %7 to i8*
  call void @llvm.memcpy.p0i8.p0i8.i64(i8* align 8 %225, i8* align 4 %226, i64 40, i1 false)
  br label %227

227:                                              ; preds = %208
  %228 = load i32, i32* %3, align 4
  %229 = add nsw i32 %228, 1
  store i32 %229, i32* %3, align 4
  br label %176

230:                                              ; preds = %176
  %231 = call i32 (i8*, ...) @printf(i8* getelementptr inbounds ([4 x i8], [4 x i8]* @.str.2, i64 0, i64 0), i8* getelementptr inbounds ([100 x %struct.student], [100 x %struct.student]* @person, i64 0, i64 0, i32 0, i64 0))
  %232 = load i32, i32* getelementptr inbounds ([100 x %struct.student], [100 x %struct.student]* @person, i64 0, i64 0, i32 6), align 4
  %233 = call i32 (i8*, ...) @printf(i8* getelementptr inbounds ([4 x i8], [4 x i8]* @.str.3, i64 0, i64 0), i32 %232)
  %234 = load i32, i32* %5, align 4
  %235 = call i32 (i8*, ...) @printf(i8* getelementptr inbounds ([3 x i8], [3 x i8]* @.str, i64 0, i64 0), i32 %234)
  ret i32 0
}